; ModuleID = '44/429.c'
source_filename = "44/429.c"
target datalayout = "e-m:e-p270:32:32-p271:32:32-p272:64:64-i64:64-f80:128-n8:16:32:64-S128"
target triple = "x86_64-pc-linux-gnu"

@.str = private unnamed_addr constant [3 x i8] c"%d\00", align 1
@.str.1 = private unnamed_addr constant [4 x i8] c"%d\0A\00", align 1

; Function Attrs: noinline nounwind uwtable
define dso_local i32 @reverse(i32 %0) #0 {
  %2 = alloca i32, align 4
  %3 = alloca i32, align 4
  %4 = alloca i32, align 4
  %5 = alloca i32, align 4
  store i32 %0, i32* %2, align 4
  %6 = load i32, i32* %2, align 4
  %7 = sdiv i32 %6, 10
  store i32 %7, i32* %3, align 4
  store i32 0, i32* %4, align 4
  store i32 0, i32* %5, align 4
  br label %8

8:                                                ; preds = %11, %1
  %9 = load i32, i32* %3, align 4
  %10 = icmp ne i32 %9, 0
  br i1 %10, label %11, label %16

11:                                               ; preds = %8
  %12 = load i32, i32* %4, align 4
  %13 = add nsw i32 %12, 1
  store i32 %13, i32* %4, align 4
  %14 = load i32, i32* %3, align 4
  %15 = sdiv i32 %14, 10
  store i32 %15, i32* %3, align 4
  br label %8

16:                                               ; preds = %8
  %17 = load i32, i32* %4, align 4
  store i32 %17, i32* %5, align 4
  %18 = load i32, i32* %5, align 4
  store i32 %18, i32* %4, align 4
  br label %19

19:                                               ; preds = %35, %16
  %20 = load i32, i32* %4, align 4
  %21 = icmp sge i32 %20, 0
  br i1 %21, label %22, label %38

22:                                               ; preds = %19
  %23 = load i32, i32* %3, align 4
  %24 = load i32, i32* %2, align 4
  %25 = srem i32 %24, 10
  %26 = add nsw i32 %23, %25
  store i32 %26, i32* %3, align 4
  %27 = load i32, i32* %2, align 4
  %28 = sdiv i32 %27, 10
  store i32 %28, i32* %2, align 4
  %29 = load i32, i32* %2, align 4
  %30 = icmp eq i32 %29, 0
  br i1 %30, label %31, label %32

31:                                               ; preds = %22
  br label %38

32:                                               ; preds = %22
  %33 = load i32, i32* %3, align 4
  %34 = mul nsw i32 %33, 10
  store i32 %34, i32* %3, align 4
  br label %35

35:                                               ; preds = %32
  %36 = load i32, i32* %4, align 4
  %37 = add nsw i32 %36, -1
  store i32 %37, i32* %4, align 4
  br label %19

38:                                               ; preds = %31, %19
  %39 = load i32, i32* %3, align 4
  ret i32 %39
}

; Function Attrs: noinline nounwind uwtable
define dso_local i32 @main() #0 {
  %1 = alloca i32, align 4
  %2 = alloca i32, align 4
  %3 = alloca i32, align 4
  %4 = alloca i32, align 4
  store i32 0, i32* %1, align 4
  store i32 0, i32* %2, align 4
  store i32 0, i32* %3, align 4
  store i32 0, i32* %4, align 4
  store i32 0, i32* %2, align 4
  br label %5

5:                                                ; preds = %14, %0
  %6 = load i32, i32* %2, align 4
  %7 = icmp slt i32 %6, 6
  br i1 %7, label %8, label %17

8:                                                ; preds = %5
  %9 = call i32 (i8*, ...) @__isoc99_scanf(i8* getelementptr inbounds ([3 x i8], [3 x i8]* @.str, i64 0, i64 0), i32* %3)
  %10 = load i32, i32* %3, align 4
  %11 = call i32 @reverse(i32 %10)
  store i32 %11, i32* %4, align 4
  %12 = load i32, i32* %4, align 4
  %13 = call i32 (i8*, ...) @printf(i8* getelementptr inbounds ([4 x i8], [4 x i8]* @.str.1, i64 0, i64 0), i32 %12)
  br label %14

14:                                               ; preds = %8
  %15 = load i32, i32* %2, align 4
  %16 = add nsw i32 %15, 1
  store i32 %16, i32* %2, align 4
  br label %5

17:                                               ; preds = %5
  ret i32 0
}

declare dso_local i32 @__isoc99_scanf(i8*, ...) #1

declare dso_local i32 @printf(i8*, ...) #1


!llvm.module.flags = !{!0}
!llvm.ident = !{!1}

!0 = !{i32 1, !"wchar_size", i32 4}
!1 = !{!"clang version 10.0.0-4ubuntu1 "}
